target datalayout = "e-m:e-p270:32:32-p271:32:32-p272:64:64-i64:64-i128:128-f80:128-n8:16:32:64-S128"
target triple = "x86_64-pc-linux-gnu"

%"class.nanobind::handle" = type { ptr }
%"class.Eigen::Matrix.1662" = type { %"class.Eigen::PlainObjectBase.1663" }
%"class.Eigen::PlainObjectBase.1663" = type { %"class.Eigen::DenseStorage.1670" }
%"class.Eigen::DenseStorage.1670" = type { ptr, i64 }
%"struct.nanobind::detail::type_caster.1680" = type { %"struct.nanobind::detail::type_caster_base.1681" }
%"struct.nanobind::detail::type_caster_base.1681" = type { ptr }
%"struct.nanobind::detail::tuple.1762" = type { %"struct.nanobind::detail::type_caster.1680" }
%class.anon.1785 = type { i8 }

@_ZTIZL28nanobind_init_test_eigen_extRN8nanobind7module_EE4Base = internal constant { ptr, ptr } { ptr getelementptr inbounds (ptr, ptr @_ZTVN10__cxxabiv117__class_type_infoE, i64 2), ptr @_ZTSZL28nanobind_init_test_eigen_extRN8nanobind7module_EE4Base }, align 8

; Function Attrs: inlinehint mustprogress nounwind optsize uwtable
define linkonce_odr hidden void @_ZN5Eigen8internal12aligned_freeEPv(ptr noundef %0) #11 comdat {
  %2 = alloca ptr, align 8
  store ptr %0, ptr %2, align 8, !tbaa !41
  %3 = load ptr, ptr %2, align 8, !tbaa !41
  call void @free(ptr noundef %3) #26
  ret void
}

; Function Attrs: inlinehint mustprogress optsize uwtable
define linkonce_odr hidden void @_ZN5Eigen8internal24conditional_aligned_freeILb1EEEvPv(ptr noundef %0) #10 comdat {
  %2 = alloca ptr, align 8
  store ptr %0, ptr %2, align 8, !tbaa !41
  %3 = load ptr, ptr %2, align 8, !tbaa !41
  call void @_ZN5Eigen8internal12aligned_freeEPv(ptr noundef %3) #24
  ret void
}

; Function Attrs: noinline noreturn nounwind optsize uwtable
define linkonce_odr hidden void @__clang_call_terminate(ptr noundef %0) #9 comdat {
  %2 = call ptr @__cxa_begin_catch(ptr %0) #25
  call void @_ZSt9terminatev() #27
  unreachable
}

; Function Attrs: inlinehint mustprogress optsize uwtable
define linkonce_odr hidden void @_ZN5Eigen8internal31conditional_aligned_delete_autoIdLb1EEEvPT_m(ptr noundef %0, i64 noundef %1) #10 comdat {
  %3 = alloca ptr, align 8
  %4 = alloca i64, align 8
  store ptr %0, ptr %3, align 8, !tbaa !2787
  store i64 %1, ptr %4, align 8, !tbaa !44
  %5 = load ptr, ptr %3, align 8, !tbaa !2787
  call void @_ZN5Eigen8internal24conditional_aligned_freeILb1EEEvPv(ptr noundef %5) #24
  ret void
}

; Function Attrs: mustprogress nounwind optsize uwtable
define linkonce_odr hidden void @_ZN5Eigen12DenseStorageIdLin1ELin1ELi1ELi0EED2Ev(ptr noundef nonnull align 8 dereferenceable(16) %0) unnamed_addr #1 comdat align 2 personality ptr @__gxx_personality_v0 {
  %2 = alloca ptr, align 8
  store ptr %0, ptr %2, align 8, !tbaa !3274
  %3 = load ptr, ptr %2, align 8
  %4 = getelementptr inbounds nuw %"class.Eigen::DenseStorage.1670", ptr %3, i32 0, i32 0
  %5 = load ptr, ptr %4, align 8, !tbaa !3276
  %6 = getelementptr inbounds nuw %"class.Eigen::DenseStorage.1670", ptr %3, i32 0, i32 1
  %7 = load i64, ptr %6, align 8, !tbaa !3278
  %8 = mul nsw i64 1, %7
  invoke void @_ZN5Eigen8internal31conditional_aligned_delete_autoIdLb1EEEvPT_m(ptr noundef %5, i64 noundef %8) #24
          to label %9 unwind label %10

9:                                                ; preds = %1
  ret void

10:                                               ; preds = %1
  %11 = landingpad { ptr, i32 }
          catch ptr null
  %12 = extractvalue { ptr, i32 } %11, 0
  call void @__clang_call_terminate(ptr %12) #27
  unreachable
}

; Function Attrs: inlinehint mustprogress nounwind optsize uwtable
define linkonce_odr hidden void @_ZN5Eigen15PlainObjectBaseINS_6MatrixIdLin1ELi1ELi0ELin1ELi1EEEED2Ev(ptr noundef nonnull align 8 dereferenceable(16) %0) unnamed_addr #11 comdat align 2 {
  %2 = alloca ptr, align 8
  store ptr %0, ptr %2, align 8, !tbaa !3270
  %3 = load ptr, ptr %2, align 8
  %4 = getelementptr inbounds nuw %"class.Eigen::PlainObjectBase.1663", ptr %3, i32 0, i32 0
  call void @_ZN5Eigen12DenseStorageIdLin1ELin1ELi1ELi0EED2Ev(ptr noundef nonnull align 8 dereferenceable(16) %4) #26
  ret void
}

; Function Attrs: alwaysinline mustprogress nounwind optsize uwtable
define linkonce_odr hidden noundef ptr @_ZNK8nanobind6handle3ptrEv(ptr noundef nonnull align 8 dereferenceable(8) %0) #7 comdat align 2 {
  %2 = alloca ptr, align 8
  store ptr %0, ptr %2, align 8, !tbaa !20
  %3 = load ptr, ptr %2, align 8
  %4 = getelementptr inbounds nuw %"class.nanobind::handle", ptr %3, i32 0, i32 0
  %5 = load ptr, ptr %4, align 8, !tbaa !22
  ret ptr %5
}

; Function Attrs: mustprogress nounwind optsize uwtable
define linkonce_odr hidden ptr @_ZN8nanobind6detail11type_casterIN5Eigen6MatrixIdLin1ELi1ELi0ELin1ELi1EEEiE8from_cppEOS4_NS_9rv_policyEPNS0_12cleanup_listE(ptr noundef nonnull align 8 dereferenceable(16) %0, i32 noundef %1, ptr noundef %2) #1 comdat align 2 {
  %4 = alloca %"class.nanobind::handle", align 8
  %5 = alloca ptr, align 8
  %6 = alloca i32, align 4
  %7 = alloca ptr, align 8
  store ptr %0, ptr %5, align 8, !tbaa !3268
  store i32 %1, ptr %6, align 4, !tbaa !31
  store ptr %2, ptr %7, align 8, !tbaa !143
  %8 = load i32, ptr %6, align 4, !tbaa !31
  %9 = icmp eq i32 %8, 0
  br i1 %9, label %13, label %10

10:                                               ; preds = %3
  %11 = load i32, ptr %6, align 4, !tbaa !31
  %12 = icmp eq i32 %11, 1
  br i1 %12, label %13, label %14

13:                                               ; preds = %10, %3
  store i32 4, ptr %6, align 4, !tbaa !31
  br label %14

14:                                               ; preds = %13, %10
  %15 = load ptr, ptr %5, align 8, !tbaa !3268
  %16 = load i32, ptr %6, align 4, !tbaa !31
  %17 = load ptr, ptr %7, align 8, !tbaa !143
  %18 = call ptr @_ZN8nanobind6detail11type_casterIN5Eigen6MatrixIdLin1ELi1ELi0ELin1ELi1EEEiE8from_cppERKS4_NS_9rv_policyEPNS0_12cleanup_listE(ptr noundef nonnull align 8 dereferenceable(16) %15, i32 noundef %16, ptr noundef %17) #26
  %19 = getelementptr inbounds nuw %"class.nanobind::handle", ptr %4, i32 0, i32 0
  store ptr %18, ptr %19, align 8
  %20 = getelementptr inbounds nuw %"class.nanobind::handle", ptr %4, i32 0, i32 0
  %21 = load ptr, ptr %20, align 8
  ret ptr %21
}

; Function Attrs: inlinehint mustprogress optsize uwtable
define internal void @"_ZZL28nanobind_init_test_eigen_extRN8nanobind7module_EENK4$_49clEPZL28nanobind_init_test_eigen_extS1_E4Base"(ptr dead_on_unwind noalias writable sret(%"class.Eigen::Matrix.1662") align 8 %0, ptr noundef nonnull align 1 dereferenceable(1) %1, ptr noundef %2) #10 align 2 {
  %4 = alloca ptr, align 8
  %5 = alloca ptr, align 8
  %6 = alloca ptr, align 8
  store ptr %0, ptr %4, align 8
  store ptr %1, ptr %5, align 8, !tbaa !41
  store ptr %2, ptr %6, align 8, !tbaa !3262
  %7 = load ptr, ptr %6, align 8, !tbaa !3262
  %8 = load ptr, ptr %7, align 8, !tbaa !18
  %9 = getelementptr inbounds ptr, ptr %8, i64 4
  %10 = load ptr, ptr %9, align 8
  call void %10(ptr dead_on_unwind writable sret(%"class.Eigen::Matrix.1662") align 8 %0, ptr noundef nonnull align 8 dereferenceable(8) %7) #24
  ret void
}

; Function Attrs: mustprogress nounwind optsize uwtable
define internal noundef ptr @_ZN8nanobind6detail16type_caster_baseIZL28nanobind_init_test_eigen_extRNS_7module_EE4BaseEcvPS4_Ev(ptr noundef nonnull align 8 dereferenceable(8) %0) #1 align 2 {
  %2 = alloca ptr, align 8
  store ptr %0, ptr %2, align 8, !tbaa !3295
  %3 = load ptr, ptr %2, align 8
  %4 = getelementptr inbounds nuw %"struct.nanobind::detail::type_caster_base.1681", ptr %3, i32 0, i32 0
  %5 = load ptr, ptr %4, align 8, !tbaa !3297
  ret ptr %5
}

; Function Attrs: alwaysinline mustprogress nounwind optsize uwtable
define internal noundef zeroext i1 @_ZN8nanobind6detail16type_caster_baseIZL28nanobind_init_test_eigen_extRNS_7module_EE4BaseE11from_pythonENS_6handleEhPNS0_12cleanup_listE(ptr noundef nonnull align 8 dereferenceable(8) %0, ptr %1, i8 noundef zeroext %2, ptr noundef %3) #7 align 2 {
  %5 = alloca %"class.nanobind::handle", align 8
  %6 = alloca ptr, align 8
  %7 = alloca i8, align 1
  %8 = alloca ptr, align 8
  %9 = getelementptr inbounds nuw %"class.nanobind::handle", ptr %5, i32 0, i32 0
  store ptr %1, ptr %9, align 8
  store ptr %0, ptr %6, align 8, !tbaa !3295
  store i8 %2, ptr %7, align 1, !tbaa !30
  store ptr %3, ptr %8, align 8, !tbaa !143
  %10 = load ptr, ptr %6, align 8
  %11 = call noundef ptr @_ZNK8nanobind6handle3ptrEv(ptr noundef nonnull align 8 dereferenceable(8) %5) #24
  %12 = load i8, ptr %7, align 1, !tbaa !30
  %13 = load ptr, ptr %8, align 8, !tbaa !143
  %14 = getelementptr inbounds nuw %"struct.nanobind::detail::type_caster_base.1681", ptr %10, i32 0, i32 0
  %15 = call noundef zeroext i1 @_ZN8nanobind6detail11nb_type_getEPKSt9type_infoP7_objecthPNS0_12cleanup_listEPPv(ptr noundef @_ZTIZL28nanobind_init_test_eigen_extRN8nanobind7module_EE4Base, ptr noundef %11, i8 noundef zeroext %12, ptr noundef %13, ptr noundef %14) #26
  ret i1 %15
}

; Function Attrs: alwaysinline mustprogress nounwind optsize uwtable
define linkonce_odr hidden void @_ZN8nanobind6handleC2EPK7_object(ptr noundef nonnull align 8 dereferenceable(8) %0, ptr noundef %1) unnamed_addr #7 comdat align 2 {
  %3 = alloca ptr, align 8
  %4 = alloca ptr, align 8
  store ptr %0, ptr %3, align 8, !tbaa !20
  store ptr %1, ptr %4, align 8, !tbaa !14
  %5 = load ptr, ptr %3, align 8
  %6 = getelementptr inbounds nuw %"class.nanobind::handle", ptr %5, i32 0, i32 0
  %7 = load ptr, ptr %4, align 8, !tbaa !14
  store ptr %7, ptr %6, align 8, !tbaa !22
  ret void
}

; Function Attrs: alwaysinline mustprogress nounwind optsize uwtable
define internal noundef nonnull align 8 dereferenceable(8) ptr @_ZN8nanobind6detail5tupleIJNS0_11type_casterIZL28nanobind_init_test_eigen_extRNS_7module_EE4BaseiEEEE3getILm0EEERDav(ptr noundef nonnull align 8 dereferenceable(8) %0) #7 align 2 {
  %2 = alloca ptr, align 8
  store ptr %0, ptr %2, align 8, !tbaa !3493
  %3 = load ptr, ptr %2, align 8
  %4 = getelementptr inbounds nuw %"struct.nanobind::detail::tuple.1762", ptr %3, i32 0, i32 0
  ret ptr %4
}

; Function Attrs: alwaysinline mustprogress optsize uwtable
define internal noundef ptr @"_ZZN8nanobind6detail11func_createILb0ELb1EZL28nanobind_init_test_eigen_extRNS_7module_EE4$_49N5Eigen6MatrixIdLin1ELi1ELi0ELin1ELi1EEEJPZL28nanobind_init_test_eigen_extS3_E4BaseEJLm0EEJNS_5scopeENS_4nameEEEEP7_objectOT1_PFT2_DpT3_ESt16integer_sequenceImJXspT4_EEEDpRKT5_ENKUlPvPSD_PhNS_9rv_policyEPNS0_12cleanup_listEE_clESR_SS_ST_SU_SW_"(ptr noundef nonnull align 1 dereferenceable(1) %0, ptr noundef %1, ptr noundef %2, ptr noundef %3, i32 noundef %4, ptr noundef %5) #5 align 2 {
  %7 = alloca ptr, align 8
  %8 = alloca ptr, align 8
  %9 = alloca ptr, align 8
  %10 = alloca ptr, align 8
  %11 = alloca ptr, align 8
  %12 = alloca i32, align 4
  %13 = alloca ptr, align 8
  %14 = alloca ptr, align 8
  %15 = alloca %"struct.nanobind::detail::tuple.1762", align 8
  %16 = alloca %"class.nanobind::handle", align 8
  %17 = alloca i32, align 4
  %18 = alloca ptr, align 8
  %19 = alloca %"class.nanobind::handle", align 8
  %20 = alloca %"class.Eigen::Matrix.1662", align 8
  store ptr %0, ptr %8, align 8, !tbaa !41
  store ptr %1, ptr %9, align 8, !tbaa !41
  store ptr %2, ptr %10, align 8, !tbaa !141
  store ptr %3, ptr %11, align 8, !tbaa !39
  store i32 %4, ptr %12, align 4, !tbaa !31
  store ptr %5, ptr %13, align 8, !tbaa !143
  call void @llvm.lifetime.start.p0(i64 8, ptr %14) #25
  %21 = load ptr, ptr %9, align 8, !tbaa !41
  store ptr %21, ptr %14, align 8, !tbaa !3532
  call void @llvm.lifetime.start.p0(i64 8, ptr %15) #25
  %22 = call noundef nonnull align 8 dereferenceable(8) ptr @_ZN8nanobind6detail5tupleIJNS0_11type_casterIZL28nanobind_init_test_eigen_extRNS_7module_EE4BaseiEEEE3getILm0EEERDav(ptr noundef nonnull align 8 dereferenceable(8) %15) #24
  %23 = load ptr, ptr %10, align 8, !tbaa !141
  %24 = getelementptr inbounds nuw ptr, ptr %23, i64 0
  %25 = load ptr, ptr %24, align 8, !tbaa !14
  call void @_ZN8nanobind6handleC2EPK7_object(ptr noundef nonnull align 8 dereferenceable(8) %16, ptr noundef %25) #24
  %26 = load ptr, ptr %11, align 8, !tbaa !39
  %27 = getelementptr inbounds nuw i8, ptr %26, i64 0
  %28 = load i8, ptr %27, align 1, !tbaa !30
  %29 = load ptr, ptr %13, align 8, !tbaa !143
  %30 = getelementptr inbounds nuw %"class.nanobind::handle", ptr %16, i32 0, i32 0
  %31 = load ptr, ptr %30, align 8
  %32 = call noundef zeroext i1 @_ZN8nanobind6detail16type_caster_baseIZL28nanobind_init_test_eigen_extRNS_7module_EE4BaseE11from_pythonENS_6handleEhPNS0_12cleanup_listE(ptr noundef nonnull align 8 dereferenceable(8) %22, ptr %31, i8 noundef zeroext %28, ptr noundef %29) #26
  br i1 %32, label %34, label %33

33:                                               ; preds = %6
  store ptr inttoptr (i64 1 to ptr), ptr %7, align 8
  store i32 1, ptr %17, align 4
  br label %44

34:                                               ; preds = %6
  call void @llvm.lifetime.start.p0(i64 8, ptr %18) #25
  call void @llvm.lifetime.start.p0(i64 8, ptr %19) #25
  call void @llvm.lifetime.start.p0(i64 16, ptr %20) #25
  %35 = load ptr, ptr %14, align 8, !tbaa !3532
  %36 = call noundef nonnull align 8 dereferenceable(8) ptr @_ZN8nanobind6detail5tupleIJNS0_11type_casterIZL28nanobind_init_test_eigen_extRNS_7module_EE4BaseiEEEE3getILm0EEERDav(ptr noundef nonnull align 8 dereferenceable(8) %15) #24
  %37 = call noundef ptr @_ZN8nanobind6detail16type_caster_baseIZL28nanobind_init_test_eigen_extRNS_7module_EE4BaseEcvPS4_Ev(ptr noundef nonnull align 8 dereferenceable(8) %36) #24
  call void @"_ZZL28nanobind_init_test_eigen_extRN8nanobind7module_EENK4$_49clEPZL28nanobind_init_test_eigen_extS1_E4Base"(ptr dead_on_unwind writable sret(%"class.Eigen::Matrix.1662") align 8 %20, ptr noundef nonnull align 1 dereferenceable(1) %35, ptr noundef %37) #24
  %38 = load i32, ptr %12, align 4, !tbaa !31
  %39 = load ptr, ptr %13, align 8, !tbaa !143
  %40 = call ptr @_ZN8nanobind6detail11type_casterIN5Eigen6MatrixIdLin1ELi1ELi0ELin1ELi1EEEiE8from_cppEOS4_NS_9rv_policyEPNS0_12cleanup_listE(ptr noundef nonnull align 8 dereferenceable(16) %20, i32 noundef %38, ptr noundef %39) #26
  %41 = getelementptr inbounds nuw %"class.nanobind::handle", ptr %19, i32 0, i32 0
  store ptr %40, ptr %41, align 8
  %42 = call noundef ptr @_ZNK8nanobind6handle3ptrEv(ptr noundef nonnull align 8 dereferenceable(8) %19) #24
  store ptr %42, ptr %18, align 8, !tbaa !14
  call void @_ZN5Eigen15PlainObjectBaseINS_6MatrixIdLin1ELi1ELi0ELin1ELi1EEEED2Ev(ptr noundef nonnull align 8 dereferenceable(16) %20) #26
  call void @llvm.lifetime.end.p0(i64 16, ptr %20) #25
  call void @llvm.lifetime.end.p0(i64 8, ptr %19) #25
  %43 = load ptr, ptr %18, align 8, !tbaa !14
  store ptr %43, ptr %7, align 8
  store i32 1, ptr %17, align 4
  call void @llvm.lifetime.end.p0(i64 8, ptr %18) #25
  br label %44

44:                                               ; preds = %34, %33
  call void @llvm.lifetime.end.p0(i64 8, ptr %15) #25
  call void @llvm.lifetime.end.p0(i64 8, ptr %14) #25
  %45 = load ptr, ptr %7, align 8
  ret ptr %45
}

; Function Attrs: inlinehint mustprogress optsize uwtable
define internal noundef ptr @"_ZZN8nanobind6detail11func_createILb0ELb1EZL28nanobind_init_test_eigen_extRNS_7module_EE4$_49N5Eigen6MatrixIdLin1ELi1ELi0ELin1ELi1EEEJPZL28nanobind_init_test_eigen_extS3_E4BaseEJLm0EEJNS_5scopeENS_4nameEEEEP7_objectOT1_PFT2_DpT3_ESt16integer_sequenceImJXspT4_EEEDpRKT5_ENUlPvPSD_PhNS_9rv_policyEPNS0_12cleanup_listEE_8__invokeESR_SS_ST_SU_SW_"(ptr noundef %0, ptr noundef %1, ptr noundef %2, i32 noundef %3, ptr noundef %4) #10 align 2 {
  %6 = alloca ptr, align 8
  %7 = alloca ptr, align 8
  %8 = alloca ptr, align 8
  %9 = alloca i32, align 4
  %10 = alloca ptr, align 8
  %11 = alloca %class.anon.1785, align 1
  store ptr %0, ptr %6, align 8, !tbaa !41
  store ptr %1, ptr %7, align 8, !tbaa !141
  store ptr %2, ptr %8, align 8, !tbaa !39
  store i32 %3, ptr %9, align 4, !tbaa !31
  store ptr %4, ptr %10, align 8, !tbaa !143
  %12 = load ptr, ptr %6, align 8, !tbaa !41
  %13 = load ptr, ptr %7, align 8, !tbaa !141
  %14 = load ptr, ptr %8, align 8, !tbaa !39
  %15 = load i32, ptr %9, align 4, !tbaa !31
  %16 = load ptr, ptr %10, align 8, !tbaa !143
  %17 = call noundef ptr @"_ZZN8nanobind6detail11func_createILb0ELb1EZL28nanobind_init_test_eigen_extRNS_7module_EE4$_49N5Eigen6MatrixIdLin1ELi1ELi0ELin1ELi1EEEJPZL28nanobind_init_test_eigen_extS3_E4BaseEJLm0EEJNS_5scopeENS_4nameEEEEP7_objectOT1_PFT2_DpT3_ESt16integer_sequenceImJXspT4_EEEDpRKT5_ENKUlPvPSD_PhNS_9rv_policyEPNS0_12cleanup_listEE_clESR_SS_ST_SU_SW_"(ptr noundef nonnull align 1 dereferenceable(1) %11, ptr noundef %12, ptr noundef %13, ptr noundef %14, i32 noundef %15, ptr noundef %16) #24
  ret ptr %17
}