; Function Attrs: inlinehint mustprogress optsize uwtable
define internal noundef ptr @"_ZZN8nanobind6detail11func_createILb0ELb1EZL28nanobind_init_test_eigen_extRNS_7module_EE4$_49N5Eigen6MatrixIdLin1ELi1ELi0ELin1ELi1EEEJPZL28nanobind_init_test_eigen_extS3_E4BaseEJLm0EEJNS_5scopeENS_4nameEEEEP7_objectOT1_PFT2_DpT3_ESt16integer_sequenceImJXspT4_EEEDpRKT5_ENUlPvPSD_PhNS_9rv_policyEPNS0_12cleanup_listEE_8__invokeESR_SS_ST_SU_SW_"(ptr readnone captures(none) %0, ptr noundef readonly captures(none) %1, ptr noundef readonly captures(none) %2, i32 noundef %3, ptr noundef %4) #18 align 2 personality ptr @__gxx_personality_v0 {
  %6 = alloca %"struct.nanobind::detail::tuple.1762", align 8
  %7 = alloca %"class.Eigen::Matrix.1662", align 8
  call void @llvm.lifetime.start.p0(i64 8, ptr nonnull %6) #32
  %8 = load ptr, ptr %1, align 8, !tbaa !107
  %9 = load i8, ptr %2, align 1, !tbaa !74
  %10 = call noundef zeroext i1 @_ZN8nanobind6detail11nb_type_getEPKSt9type_infoP7_objecthPNS0_12cleanup_listEPPv(ptr noundef nonnull @_ZTIZL28nanobind_init_test_eigen_extRN8nanobind7module_EE4Base, ptr noundef %8, i8 noundef zeroext %9, ptr noundef %4, ptr noundef nonnull align 8 dereferenceable(8) %6) #33
  br i1 %10, label %11, label %"_ZZN8nanobind6detail11func_createILb0ELb1EZL28nanobind_init_test_eigen_extRNS_7module_EE4$_49N5Eigen6MatrixIdLin1ELi1ELi0ELin1ELi1EEEJPZL28nanobind_init_test_eigen_extS3_E4BaseEJLm0EEJNS_5scopeENS_4nameEEEEP7_objectOT1_PFT2_DpT3_ESt16integer_sequenceImJXspT4_EEEDpRKT5_ENKUlPvPSD_PhNS_9rv_policyEPNS0_12cleanup_listEE_clESR_SS_ST_SU_SW_.exit"

11:                                               ; preds = %5
  call void @llvm.lifetime.start.p0(i64 16, ptr nonnull %7) #32
  %.val = load ptr, ptr %6, align 8, !tbaa !1061
  %12 = load ptr, ptr %.val, align 8, !tbaa !108, !noalias !1137
  %13 = getelementptr inbounds nuw i8, ptr %12, i64 32
  %14 = load ptr, ptr %13, align 8, !noalias !1137
  call void %14(ptr dead_on_unwind nonnull writable sret(%"class.Eigen::Matrix.1662") align 8 %7, ptr noundef nonnull align 8 dereferenceable(8) %.val) #31
  %or.cond.i = icmp ult i32 %3, 2
  %spec.store.select.i = select i1 %or.cond.i, i32 4, i32 %3
  %15 = call ptr @_ZN8nanobind6detail11type_casterIN5Eigen6MatrixIdLin1ELi1ELi0ELin1ELi1EEEiE8from_cppERKS4_NS_9rv_policyEPNS0_12cleanup_listE(ptr noundef nonnull align 8 dereferenceable(16) %7, i32 noundef %spec.store.select.i, ptr noundef %4) #33
  %16 = load ptr, ptr %7, align 8, !tbaa !1058
  call void @free(ptr noundef %16) #33
  call void @llvm.lifetime.end.p0(i64 16, ptr nonnull %7) #32
  br label %"_ZZN8nanobind6detail11func_createILb0ELb1EZL28nanobind_init_test_eigen_extRNS_7module_EE4$_49N5Eigen6MatrixIdLin1ELi1ELi0ELin1ELi1EEEJPZL28nanobind_init_test_eigen_extS3_E4BaseEJLm0EEJNS_5scopeENS_4nameEEEEP7_objectOT1_PFT2_DpT3_ESt16integer_sequenceImJXspT4_EEEDpRKT5_ENKUlPvPSD_PhNS_9rv_policyEPNS0_12cleanup_listEE_clESR_SS_ST_SU_SW_.exit"

"_ZZN8nanobind6detail11func_createILb0ELb1EZL28nanobind_init_test_eigen_extRNS_7module_EE4$_49N5Eigen6MatrixIdLin1ELi1ELi0ELin1ELi1EEEJPZL28nanobind_init_test_eigen_extS3_E4BaseEJLm0EEJNS_5scopeENS_4nameEEEEP7_objectOT1_PFT2_DpT3_ESt16integer_sequenceImJXspT4_EEEDpRKT5_ENKUlPvPSD_PhNS_9rv_policyEPNS0_12cleanup_listEE_clESR_SS_ST_SU_SW_.exit": ; preds = %5, %11
  %.0.i = phi ptr [ %15, %11 ], [ inttoptr (i64 1 to ptr), %5 ]
  call void @llvm.lifetime.end.p0(i64 8, ptr nonnull %6) #32
  ret ptr %.0.i
}